; Function Attrs: mustprogress uwtable
define hidden void @_ZN8nanobind6detail23nb_bound_method_deallocEP7_object(ptr noundef %0) local_unnamed_addr #0 {
  tail call void @PyObject_GC_UnTrack(ptr noundef %0)
  %2 = getelementptr inbounds nuw i8, ptr %0, i64 24
  %3 = load ptr, ptr %2, align 8
  %4 = load i64, ptr %3, align 8
  %5 = add nsw i64 %4, -1
  store i64 %5, ptr %3, align 8
  %.not.i = icmp eq i64 %5, 0
  br i1 %.not.i, label %6, label %_ZL10_Py_DECREFP7_object.exit

6:                                                ; preds = %1
  tail call void @_Py_Dealloc(ptr noundef nonnull %3)
  br label %_ZL10_Py_DECREFP7_object.exit

_ZL10_Py_DECREFP7_object.exit:                    ; preds = %1, %6
  %7 = getelementptr inbounds nuw i8, ptr %0, i64 32
  %8 = load ptr, ptr %7, align 8
  %9 = load i64, ptr %8, align 8
  %10 = add nsw i64 %9, -1
  store i64 %10, ptr %8, align 8
  %.not.i5 = icmp eq i64 %10, 0
  br i1 %.not.i5, label %11, label %_ZL10_Py_DECREFP7_object.exit6

11:                                               ; preds = %_ZL10_Py_DECREFP7_object.exit
  tail call void @_Py_Dealloc(ptr noundef nonnull %8)
  br label %_ZL10_Py_DECREFP7_object.exit6

_ZL10_Py_DECREFP7_object.exit6:                   ; preds = %_ZL10_Py_DECREFP7_object.exit, %11
  tail call void @PyObject_GC_Del(ptr noundef nonnull %0)
  ret void
}